
Allocating common symbols
Common symbol       size              file

SystemCoreClock     0x4               ..\obj\system_efm32.o
msTicks             0x4               ..\obj\main.o

Discarded input sections

 .text          0x00000000        0x0 ..\obj\efm32_system.o
 .data          0x00000000        0x0 ..\obj\efm32_system.o
 .bss           0x00000000        0x0 ..\obj\efm32_system.o
 .text          0x00000000        0x0 ..\obj\core_cm3.o
 .data          0x00000000        0x0 ..\obj\core_cm3.o
 .bss           0x00000000        0x0 ..\obj\core_cm3.o
 .text.__get_PSP
                0x00000000       0x10 ..\obj\core_cm3.o
 .text.__set_PSP
                0x00000000        0x8 ..\obj\core_cm3.o
 .text.__get_MSP
                0x00000000       0x10 ..\obj\core_cm3.o
 .text.__set_MSP
                0x00000000        0x8 ..\obj\core_cm3.o
 .text.__get_BASEPRI
                0x00000000       0x20 ..\obj\core_cm3.o
 .text.__set_BASEPRI
                0x00000000       0x18 ..\obj\core_cm3.o
 .text.__get_PRIMASK
                0x00000000       0x20 ..\obj\core_cm3.o
 .text.__set_PRIMASK
                0x00000000       0x18 ..\obj\core_cm3.o
 .text.__get_FAULTMASK
                0x00000000       0x20 ..\obj\core_cm3.o
 .text.__set_FAULTMASK
                0x00000000       0x18 ..\obj\core_cm3.o
 .text.__get_CONTROL
                0x00000000       0x20 ..\obj\core_cm3.o
 .text.__set_CONTROL
                0x00000000       0x18 ..\obj\core_cm3.o
 .text.__REV    0x00000000       0x24 ..\obj\core_cm3.o
 .text.__REV16  0x00000000       0x24 ..\obj\core_cm3.o
 .text.__REVSH  0x00000000       0x24 ..\obj\core_cm3.o
 .text.__RBIT   0x00000000       0x24 ..\obj\core_cm3.o
 .text.__LDREXB
                0x00000000       0x24 ..\obj\core_cm3.o
 .text.__LDREXH
                0x00000000       0x24 ..\obj\core_cm3.o
 .text.__LDREXW
                0x00000000       0x24 ..\obj\core_cm3.o
 .text.__STREXB
                0x00000000       0x2c ..\obj\core_cm3.o
 .text.__STREXH
                0x00000000       0x2c ..\obj\core_cm3.o
 .text.__STREXW
                0x00000000       0x28 ..\obj\core_cm3.o
 .debug_info    0x00000000      0x55e ..\obj\core_cm3.o
 .debug_abbrev  0x00000000       0xe4 ..\obj\core_cm3.o
 .debug_loc     0x00000000      0x3f0 ..\obj\core_cm3.o
 .debug_aranges
                0x00000000       0xc8 ..\obj\core_cm3.o
 .debug_ranges  0x00000000       0xb8 ..\obj\core_cm3.o
 .debug_line    0x00000000      0x2a5 ..\obj\core_cm3.o
 .debug_str     0x00000000      0x27b ..\obj\core_cm3.o
 .comment       0x00000000       0x71 ..\obj\core_cm3.o
 .ARM.attributes
                0x00000000       0x33 ..\obj\core_cm3.o
 .debug_frame   0x00000000      0x280 ..\obj\core_cm3.o
 .text          0x00000000        0x0 ..\obj\efm32_emu.o
 .data          0x00000000        0x0 ..\obj\efm32_emu.o
 .bss           0x00000000        0x2 ..\obj\efm32_emu.o
 .text.__WFI    0x00000000        0xc ..\obj\efm32_emu.o
 .text.SystemCoreClockUpdate
                0x00000000        0xc ..\obj\efm32_emu.o
 .text.CMU_Lock
                0x00000000       0x1c ..\obj\efm32_emu.o
 .text.CMU_Unlock
                0x00000000       0x1c ..\obj\efm32_emu.o
 .text.EMU_Restore
                0x00000000       0xd8 ..\obj\efm32_emu.o
 .text.EMU_EnterEM2
                0x00000000       0x68 ..\obj\efm32_emu.o
 .text.EMU_EnterEM3
                0x00000000       0x94 ..\obj\efm32_emu.o
 .text.EMU_EnterEM4
                0x00000000       0x60 ..\obj\efm32_emu.o
 .text.EMU_MemPwrDown
                0x00000000       0x20 ..\obj\efm32_emu.o
 .text.EMU_UpdateOscConfig
                0x00000000       0x20 ..\obj\efm32_emu.o
 .debug_info    0x00000000      0x619 ..\obj\efm32_emu.o
 .debug_abbrev  0x00000000      0x1d4 ..\obj\efm32_emu.o
 .debug_loc     0x00000000      0x1f4 ..\obj\efm32_emu.o
 .debug_aranges
                0x00000000       0x68 ..\obj\efm32_emu.o
 .debug_ranges  0x00000000       0x58 ..\obj\efm32_emu.o
 .debug_line    0x00000000      0x31e ..\obj\efm32_emu.o
 .debug_str     0x00000000      0x37b ..\obj\efm32_emu.o
 .comment       0x00000000       0x71 ..\obj\efm32_emu.o
 .ARM.attributes
                0x00000000       0x33 ..\obj\efm32_emu.o
 .debug_frame   0x00000000      0x124 ..\obj\efm32_emu.o
 .text          0x00000000        0x0 ..\obj\efm32_cmu.o
 .data          0x00000000        0x0 ..\obj\efm32_cmu.o
 .bss           0x00000000        0x0 ..\obj\efm32_cmu.o
 .text.BITBAND_Peripheral
                0x00000000       0x30 ..\obj\efm32_cmu.o
 .text.CMU_FlashWaitStateControl
                0x00000000       0x84 ..\obj\efm32_cmu.o
 .text.CMU_LFClkGet
                0x00000000       0x60 ..\obj\efm32_cmu.o
 .text.CMU_Sync
                0x00000000       0x3c ..\obj\efm32_cmu.o
 .text.CMU_Calibrate
                0x00000000       0xc8 ..\obj\efm32_cmu.o
 .text.CMU_ClockDivGet
                0x00000000      0x120 ..\obj\efm32_cmu.o
 .text.CMU_ClockDivSet
                0x00000000      0x19c ..\obj\efm32_cmu.o
 .text.CMU_ClockEnable
                0x00000000       0xd0 ..\obj\efm32_cmu.o
 .text.CMU_ClockFreqGet
                0x00000000      0x288 ..\obj\efm32_cmu.o
 .text.CMU_ClockSelectGet
                0x00000000       0xf4 ..\obj\efm32_cmu.o
 .text.CMU_ClockSelectSet
                0x00000000      0x194 ..\obj\efm32_cmu.o
 .text.CMU_FreezeEnable
                0x00000000       0x48 ..\obj\efm32_cmu.o
 .text.CMU_HFRCOBandGet
                0x00000000       0x20 ..\obj\efm32_cmu.o
 .text.CMU_HFRCOBandSet
                0x00000000      0x108 ..\obj\efm32_cmu.o
 .text.CMU_HFRCOStartupDelayGet
                0x00000000       0x20 ..\obj\efm32_cmu.o
 .text.CMU_HFRCOStartupDelaySet
                0x00000000       0x3c ..\obj\efm32_cmu.o
 .text.CMU_LCDClkFDIVGet
                0x00000000       0x1c ..\obj\efm32_cmu.o
 .text.CMU_LCDClkFDIVSet
                0x00000000       0x4c ..\obj\efm32_cmu.o
 .text.CMU_OscillatorEnable
                0x00000000       0xe4 ..\obj\efm32_cmu.o
 .text.CMU_OscillatorTuningGet
                0x00000000       0x60 ..\obj\efm32_cmu.o
 .text.CMU_OscillatorTuningSet
                0x00000000       0x94 ..\obj\efm32_cmu.o
 .text.CMU_PCNTClockExternalGet
                0x00000000       0x78 ..\obj\efm32_cmu.o
 .text.CMU_PCNTClockExternalSet
                0x00000000       0x40 ..\obj\efm32_cmu.o
 .debug_info    0x00000000      0xce3 ..\obj\efm32_cmu.o
 .debug_abbrev  0x00000000      0x234 ..\obj\efm32_cmu.o
 .debug_loc     0x00000000      0x4e4 ..\obj\efm32_cmu.o
 .debug_aranges
                0x00000000       0xd0 ..\obj\efm32_cmu.o
 .debug_ranges  0x00000000       0xc0 ..\obj\efm32_cmu.o
 .debug_line    0x00000000      0x567 ..\obj\efm32_cmu.o
 .debug_str     0x00000000      0x998 ..\obj\efm32_cmu.o
 .comment       0x00000000       0x71 ..\obj\efm32_cmu.o
 .ARM.attributes
                0x00000000       0x33 ..\obj\efm32_cmu.o
 .debug_frame   0x00000000      0x2a8 ..\obj\efm32_cmu.o
 .text          0x00000000        0x0 ..\obj\main.o
 .data          0x00000000        0x0 ..\obj\main.o
 .bss           0x00000000        0x0 ..\obj\main.o
 .text          0x00000000        0x0 ..\obj\startup_efm32.o
 .data          0x00000000        0x0 ..\obj\startup_efm32.o
 .bss           0x00000000        0x0 ..\obj\startup_efm32.o
 .text          0x00000000        0x0 ..\obj\system_efm32.o
 .bss           0x00000000        0x0 ..\obj\system_efm32.o
 .text.SystemHFXOClockGet
                0x00000000       0x18 ..\obj\system_efm32.o
 .text.SystemHFXOClockSet
                0x00000000       0x34 ..\obj\system_efm32.o
 .text.SystemLFRCOClockGet
                0x00000000       0x10 ..\obj\system_efm32.o
 .text.SystemLFXOClockGet
                0x00000000       0x18 ..\obj\system_efm32.o
 .text.SystemLFXOClockSet
                0x00000000       0x34 ..\obj\system_efm32.o
 .text          0x00000000        0x0 ..\obj\efm32_assert.o
 .data          0x00000000        0x0 ..\obj\efm32_assert.o
 .bss           0x00000000        0x0 ..\obj\efm32_assert.o
 .debug_line    0x00000000        0x0 ..\obj\efm32_assert.o
 .comment       0x00000000       0x71 ..\obj\efm32_assert.o
 .ARM.attributes
                0x00000000       0x33 ..\obj\efm32_assert.o

Memory Configuration

Name             Origin             Length             Attributes
rom              0x00000000         0x00020000         xr
ram              0x20000000         0x00004000         xrw
*default*        0x00000000         0xffffffff

Linker script and memory map

                0x20004000                _eram = 0x20004000

.text           0x00000000      0x644
 *(.isr_vector .isr_vector.*)
 .isr_vector    0x00000000       0xb8 ..\obj\startup_efm32.o
                0x00000000                g_pfnVectors
 *(.text .text.* .gnu.linkonce.t.*)
 .text.SYSTEM_ChipRevisionGet
                0x000000b8       0x5c ..\obj\efm32_system.o
                0x000000b8                SYSTEM_ChipRevisionGet
 .text.__NOP    0x00000114        0xc ..\obj\main.o
 .text.NVIC_SetPriority
                0x00000120       0x5c ..\obj\main.o
 .text.SysTick_Config
                0x0000017c       0x64 ..\obj\main.o
 .text.SystemCoreClockUpdate
                0x000001e0        0xc ..\obj\main.o
 .text.CHIP_Init
                0x000001ec      0x1e8 ..\obj\main.o
 .text.SysTick_Handler
                0x000003d4       0x24 ..\obj\main.o
                0x000003d4                SysTick_Handler
 .text.Delay    0x000003f8       0x38 ..\obj\main.o
                0x000003f8                Delay
 .text.main     0x00000430       0x6c ..\obj\main.o
                0x00000430                main
 .text.Default_Reset_Handler
                0x0000049c       0x70 ..\obj\startup_efm32.o
                0x0000049c                Default_Reset_Handler
                0x0000049c                Reset_Handler
 .text.Default_Handler
                0x0000050c        0x8 ..\obj\startup_efm32.o
                0x0000050c                TIMER2_IRQHandler
                0x0000050c                DebugMon_Handler
                0x0000050c                USART0_TX_IRQHandler
                0x0000050c                I2C0_IRQHandler
                0x0000050c                HardFault_Handler
                0x0000050c                LEUART1_IRQHandler
                0x0000050c                USART1_RX_IRQHandler
                0x0000050c                PendSV_Handler
                0x0000050c                NMI_Handler
                0x0000050c                USART1_TX_IRQHandler
                0x0000050c                ADC0_IRQHandler
                0x0000050c                UsageFault_Handler
                0x0000050c                LEUART0_IRQHandler
                0x0000050c                GPIO_EVEN_IRQHandler
                0x0000050c                UART0_TX_IRQHandler
                0x0000050c                RTC_IRQHandler
                0x0000050c                TIMER0_IRQHandler
                0x0000050c                LCD_IRQHandler
                0x0000050c                PCNT2_IRQHandler
                0x0000050c                UART0_RX_IRQHandler
                0x0000050c                LETIMER0_IRQHandler
                0x0000050c                TIMER1_IRQHandler
                0x0000050c                UDMA_IRQHandler
                0x0000050c                USART2_RX_IRQHandler
                0x0000050c                PCNT0_IRQHandler
                0x0000050c                PCNT1_IRQHandler
                0x0000050c                ACMP0_IRQHandler
                0x0000050c                USART0_RX_IRQHandler
                0x0000050c                MemManage_Handler
                0x0000050c                SVC_Handler
                0x0000050c                DAC0_IRQHandler
                0x0000050c                CMU_IRQHandler
                0x0000050c                GPIO_ODD_IRQHandler
                0x0000050c                AES_IRQHandler
                0x0000050c                VCMP_IRQHandler
                0x0000050c                IMEM_IRQHandler
                0x0000050c                BusFault_Handler
                0x0000050c                USART2_TX_IRQHandler
 .text.SystemCoreClockGet
                0x00000514       0x3c ..\obj\system_efm32.o
                0x00000514                SystemCoreClockGet
 .text.SystemHFClockGet
                0x00000550       0xe8 ..\obj\system_efm32.o
                0x00000550                SystemHFClockGet
 .text.SystemInit
                0x00000638        0xc ..\obj\system_efm32.o
                0x00000638                SystemInit
 *(.glue_7t)
 .glue_7t       0x00000000        0x0 linker stubs
 *(.glue_7)
 .glue_7        0x00000000        0x0 linker stubs
 *(.rodata .rodata* .gnu.linkonce.r.*)

.vfp11_veneer   0x00000644        0x0
 .vfp11_veneer  0x00000000        0x0 linker stubs

.v4_bx          0x00000644        0x0
 .v4_bx         0x00000000        0x0 linker stubs

.iplt           0x00000644        0x0
 .iplt          0x00000000        0x0 ..\obj\efm32_system.o

.rel.dyn        0x00000644        0x0
 .rel.iplt      0x00000000        0x0 ..\obj\efm32_system.o

.ARM.extab
 *(.ARM.extab* .gnu.linkonce.armextab.*)
                0x00000644                __exidx_start = .

.ARM.exidx
 *(.ARM.exidx* .gnu.linkonce.armexidx.*)
                0x00000644                __exidx_end = .
                0x00000644                . = ALIGN (0x4)
                0x00000644                _etext = .
                0x00000644                _sidata = .

.data           0x20000000        0x8 load address 0x00000644
                0x20000000                _sdata = .
 *(.data .data.*)
 .data          0x20000000        0x8 ..\obj\system_efm32.o
                0x20000008                . = ALIGN (0x4)
                0x20000008                _edata = .

.igot.plt       0x20000008        0x0 load address 0x0000064c
 .igot.plt      0x00000000        0x0 ..\obj\efm32_system.o

.bss            0x20000008        0x8 load address 0x0000064c
                0x20000008                _sbss = .
 *(.bss .bss.*)
 *(COMMON)
 COMMON         0x20000008        0x4 ..\obj\main.o
                0x20000008                msTicks
 COMMON         0x2000000c        0x4 ..\obj\system_efm32.o
                0x2000000c                SystemCoreClock
                0x20000010                . = ALIGN (0x4)
                0x20000010                _ebss = .

.co_stack       0x20000010      0x400 load address 0x00000654
                0x20000010                . = ALIGN (0x8)
 *(.co_stack .co_stack.*)
 .co_stack      0x20000010      0x400 ..\obj\startup_efm32.o
                0x20000010                pulStack
                0x20000410                . = ALIGN (0x4)
                0x20000410                _end = .
LOAD ..\obj\efm32_system.o
LOAD ..\obj\core_cm3.o
LOAD ..\obj\efm32_emu.o
LOAD ..\obj\efm32_cmu.o
LOAD ..\obj\main.o
LOAD ..\obj\startup_efm32.o
LOAD ..\obj\system_efm32.o
LOAD ..\obj\efm32_assert.o
START GROUP
LOAD c:/program files (x86)/gnu tools arm embedded/4.7 2013q2/bin/../lib/gcc/arm-none-eabi/4.7.4/armv7-m\libgcc.a
LOAD c:/program files (x86)/gnu tools arm embedded/4.7 2013q2/bin/../lib/gcc/arm-none-eabi/4.7.4/../../../../arm-none-eabi/lib/armv7-m\libg.a
LOAD c:/program files (x86)/gnu tools arm embedded/4.7 2013q2/bin/../lib/gcc/arm-none-eabi/4.7.4/../../../../arm-none-eabi/lib/armv7-m\libc.a
END GROUP
OUTPUT(Basic_Example_EFM32G880F128-STK.elf elf32-littlearm)

.debug_info     0x00000000      0xd2b
 .debug_info    0x00000000      0x1b0 ..\obj\efm32_system.o
 .debug_info    0x000001b0      0x673 ..\obj\main.o
 .debug_info    0x00000823       0xfe ..\obj\startup_efm32.o
 .debug_info    0x00000921      0x40a ..\obj\system_efm32.o

.debug_abbrev   0x00000000      0x555
 .debug_abbrev  0x00000000       0xdc ..\obj\efm32_system.o
 .debug_abbrev  0x000000dc      0x22b ..\obj\main.o
 .debug_abbrev  0x00000307       0xa9 ..\obj\startup_efm32.o
 .debug_abbrev  0x000003b0      0x1a5 ..\obj\system_efm32.o

.debug_loc      0x00000000      0x3bc
 .debug_loc     0x00000000       0x38 ..\obj\efm32_system.o
 .debug_loc     0x00000038      0x190 ..\obj\main.o
 .debug_loc     0x000001c8       0x64 ..\obj\startup_efm32.o
 .debug_loc     0x0000022c      0x190 ..\obj\system_efm32.o

.debug_aranges  0x00000000       0xf8
 .debug_aranges
                0x00000000       0x20 ..\obj\efm32_system.o
 .debug_aranges
                0x00000020       0x58 ..\obj\main.o
 .debug_aranges
                0x00000078       0x28 ..\obj\startup_efm32.o
 .debug_aranges
                0x000000a0       0x58 ..\obj\system_efm32.o

.debug_ranges   0x00000000       0xb8
 .debug_ranges  0x00000000       0x10 ..\obj\efm32_system.o
 .debug_ranges  0x00000010       0x48 ..\obj\main.o
 .debug_ranges  0x00000058       0x18 ..\obj\startup_efm32.o
 .debug_ranges  0x00000070       0x48 ..\obj\system_efm32.o

.debug_line     0x00000000      0x7fc
 .debug_line    0x00000000      0x213 ..\obj\efm32_system.o
 .debug_line    0x00000213      0x32b ..\obj\main.o
 .debug_line    0x0000053e       0xb0 ..\obj\startup_efm32.o
 .debug_line    0x000005ee      0x20e ..\obj\system_efm32.o

.debug_str      0x00000000      0x839
 .debug_str     0x00000000      0x193 ..\obj\efm32_system.o
                                0x1c7 (size before relaxing)
 .debug_str     0x00000193      0x405 ..\obj\main.o
                                0x53c (size before relaxing)
 .debug_str     0x00000598       0xbe ..\obj\startup_efm32.o
                                0x122 (size before relaxing)
 .debug_str     0x00000656      0x1e3 ..\obj\system_efm32.o
                                0x316 (size before relaxing)

.comment        0x00000000       0x70
 .comment       0x00000000       0x70 ..\obj\efm32_system.o
                                 0x71 (size before relaxing)
 .comment       0x00000000       0x71 ..\obj\main.o
 .comment       0x00000000       0x71 ..\obj\startup_efm32.o
 .comment       0x00000000       0x71 ..\obj\system_efm32.o

.ARM.attributes
                0x00000000       0x33
 .ARM.attributes
                0x00000000       0x33 ..\obj\efm32_system.o
 .ARM.attributes
                0x00000033       0x33 ..\obj\main.o
 .ARM.attributes
                0x00000066       0x33 ..\obj\startup_efm32.o
 .ARM.attributes
                0x00000099       0x33 ..\obj\system_efm32.o

.debug_frame    0x00000000      0x254
 .debug_frame   0x00000000       0x2c ..\obj\efm32_system.o
 .debug_frame   0x0000002c       0xf4 ..\obj\main.o
 .debug_frame   0x00000120       0x48 ..\obj\startup_efm32.o
 .debug_frame   0x00000168       0xec ..\obj\system_efm32.o
